target datalayout = "e-m:e-p270:32:32-p271:32:32-p272:64:64-i64:64-i128:128-f80:128-n8:16:32:64-S128"
target triple = "x86_64-pc-linux-gnu"

%struct.redisObject = type { i32, i32, ptr }
%struct.hllhdr = type { [4 x i8], i8, [3 x i8], [8 x i8], [0 x i8] }
%struct.sdshdr8 = type { i8, i8, i8, [0 x i8] }
%struct.sdshdr16 = type <{ i16, i16, i8, [0 x i8] }>
%struct.sdshdr32 = type <{ i32, i32, i8, [0 x i8] }>
%struct.sdshdr64 = type <{ i64, i64, i8, [0 x i8] }>

@simd_enabled = internal global i32 1, align 4
@__cpu_model = external dso_local global { i32, i32, i32, [1 x i32] }

; Function Attrs: inlinehint nounwind uwtable
define internal i64 @sdslen(ptr noundef %0) #3 {
  %2 = alloca i64, align 8
  %3 = alloca ptr, align 8
  %4 = alloca i8, align 1
  %5 = alloca i32, align 4
  store ptr %0, ptr %3, align 8, !tbaa !13
  call void @llvm.lifetime.start.p0(i64 1, ptr %4) #15
  %6 = load ptr, ptr %3, align 8, !tbaa !13
  %7 = getelementptr inbounds i8, ptr %6, i64 -1
  %8 = load i8, ptr %7, align 1, !tbaa !17
  store i8 %8, ptr %4, align 1, !tbaa !17
  %9 = load i8, ptr %4, align 1, !tbaa !17
  %10 = zext i8 %9 to i32
  %11 = and i32 %10, 7
  switch i32 %11, label %40 [
    i32 0, label %12
    i32 1, label %17
    i32 2, label %23
    i32 3, label %29
    i32 4, label %35
  ]

12:                                               ; preds = %1
  %13 = load i8, ptr %4, align 1, !tbaa !17
  %14 = zext i8 %13 to i32
  %15 = ashr i32 %14, 3
  %16 = sext i32 %15 to i64
  store i64 %16, ptr %2, align 8
  store i32 1, ptr %5, align 4
  br label %41

17:                                               ; preds = %1
  %18 = load ptr, ptr %3, align 8, !tbaa !13
  %19 = getelementptr inbounds i8, ptr %18, i64 -3
  %20 = getelementptr inbounds nuw %struct.sdshdr8, ptr %19, i32 0, i32 0
  %21 = load i8, ptr %20, align 1, !tbaa !17
  %22 = zext i8 %21 to i64
  store i64 %22, ptr %2, align 8
  store i32 1, ptr %5, align 4
  br label %41

23:                                               ; preds = %1
  %24 = load ptr, ptr %3, align 8, !tbaa !13
  %25 = getelementptr inbounds i8, ptr %24, i64 -5
  %26 = getelementptr inbounds nuw %struct.sdshdr16, ptr %25, i32 0, i32 0
  %27 = load i16, ptr %26, align 1, !tbaa !31
  %28 = zext i16 %27 to i64
  store i64 %28, ptr %2, align 8
  store i32 1, ptr %5, align 4
  br label %41

29:                                               ; preds = %1
  %30 = load ptr, ptr %3, align 8, !tbaa !13
  %31 = getelementptr inbounds i8, ptr %30, i64 -9
  %32 = getelementptr inbounds nuw %struct.sdshdr32, ptr %31, i32 0, i32 0
  %33 = load i32, ptr %32, align 1, !tbaa !9
  %34 = zext i32 %33 to i64
  store i64 %34, ptr %2, align 8
  store i32 1, ptr %5, align 4
  br label %41

35:                                               ; preds = %1
  %36 = load ptr, ptr %3, align 8, !tbaa !13
  %37 = getelementptr inbounds i8, ptr %36, i64 -17
  %38 = getelementptr inbounds nuw %struct.sdshdr64, ptr %37, i32 0, i32 0
  %39 = load i64, ptr %38, align 1, !tbaa !11
  store i64 %39, ptr %2, align 8
  store i32 1, ptr %5, align 4
  br label %41

40:                                               ; preds = %1
  store i64 0, ptr %2, align 8
  store i32 1, ptr %5, align 4
  br label %41

41:                                               ; preds = %40, %35, %29, %23, %17, %12
  call void @llvm.lifetime.end.p0(i64 1, ptr %4) #15
  %42 = load i64, ptr %2, align 8
  ret i64 %42
}

; Function Attrs: nounwind uwtable
define dso_local void @hllMergeDense(ptr noundef %0, ptr noundef %1) #0 {
  %3 = alloca ptr, align 8
  %4 = alloca ptr, align 8
  %5 = alloca i8, align 1
  %6 = alloca i32, align 4
  %7 = alloca ptr, align 8
  %8 = alloca i64, align 8
  %9 = alloca i64, align 8
  %10 = alloca i64, align 8
  %11 = alloca i64, align 8
  %12 = alloca i64, align 8
  store ptr %0, ptr %3, align 8, !tbaa !13
  store ptr %1, ptr %4, align 8, !tbaa !13
  %13 = load i32, ptr @simd_enabled, align 4, !tbaa !9
  %14 = icmp ne i32 %13, 0
  br i1 %14, label %15, label %23

15:                                               ; preds = %2
  %16 = load i32, ptr getelementptr inbounds ({ i32, i32, i32, [1 x i32] }, ptr @__cpu_model, i32 0, i32 3, i32 0), align 4
  %17 = and i32 %16, 1024
  %18 = icmp eq i32 %17, 1024
  %19 = and i1 true, %18
  br i1 %19, label %20, label %23

20:                                               ; preds = %15
  %21 = load ptr, ptr %3, align 8, !tbaa !13
  %22 = load ptr, ptr %4, align 8, !tbaa !13
  call void @hllMergeDenseAVX2(ptr noundef %21, ptr noundef %22)
  br label %83

23:                                               ; preds = %15, %2
  call void @llvm.lifetime.start.p0(i64 1, ptr %5) #15
  call void @llvm.lifetime.start.p0(i64 4, ptr %6) #15
  store i32 0, ptr %6, align 4, !tbaa !9
  br label %24

24:                                               ; preds = %79, %23
  %25 = load i32, ptr %6, align 4, !tbaa !9
  %26 = icmp slt i32 %25, 16384
  br i1 %26, label %28, label %27

27:                                               ; preds = %24
  call void @llvm.lifetime.end.p0(i64 4, ptr %6) #15
  br label %82

28:                                               ; preds = %24
  br label %29

29:                                               ; preds = %28
  call void @llvm.lifetime.start.p0(i64 8, ptr %7) #15
  %30 = load ptr, ptr %4, align 8, !tbaa !13
  store ptr %30, ptr %7, align 8, !tbaa !13
  call void @llvm.lifetime.start.p0(i64 8, ptr %8) #15
  %31 = load i32, ptr %6, align 4, !tbaa !9
  %32 = mul nsw i32 %31, 6
  %33 = sdiv i32 %32, 8
  %34 = sext i32 %33 to i64
  store i64 %34, ptr %8, align 8, !tbaa !11
  call void @llvm.lifetime.start.p0(i64 8, ptr %9) #15
  %35 = load i32, ptr %6, align 4, !tbaa !9
  %36 = mul nsw i32 %35, 6
  %37 = and i32 %36, 7
  %38 = sext i32 %37 to i64
  store i64 %38, ptr %9, align 8, !tbaa !11
  call void @llvm.lifetime.start.p0(i64 8, ptr %10) #15
  %39 = load i64, ptr %9, align 8, !tbaa !11
  %40 = sub i64 8, %39
  store i64 %40, ptr %10, align 8, !tbaa !11
  call void @llvm.lifetime.start.p0(i64 8, ptr %11) #15
  %41 = load ptr, ptr %7, align 8, !tbaa !13
  %42 = load i64, ptr %8, align 8, !tbaa !11
  %43 = getelementptr inbounds nuw i8, ptr %41, i64 %42
  %44 = load i8, ptr %43, align 1, !tbaa !17
  %45 = zext i8 %44 to i64
  store i64 %45, ptr %11, align 8, !tbaa !11
  call void @llvm.lifetime.start.p0(i64 8, ptr %12) #15
  %46 = load ptr, ptr %7, align 8, !tbaa !13
  %47 = load i64, ptr %8, align 8, !tbaa !11
  %48 = add i64 %47, 1
  %49 = getelementptr inbounds nuw i8, ptr %46, i64 %48
  %50 = load i8, ptr %49, align 1, !tbaa !17
  %51 = zext i8 %50 to i64
  store i64 %51, ptr %12, align 8, !tbaa !11
  %52 = load i64, ptr %11, align 8, !tbaa !11
  %53 = load i64, ptr %9, align 8, !tbaa !11
  %54 = lshr i64 %52, %53
  %55 = load i64, ptr %12, align 8, !tbaa !11
  %56 = load i64, ptr %10, align 8, !tbaa !11
  %57 = shl i64 %55, %56
  %58 = or i64 %54, %57
  %59 = and i64 %58, 63
  %60 = trunc i64 %59 to i8
  store i8 %60, ptr %5, align 1, !tbaa !17
  call void @llvm.lifetime.end.p0(i64 8, ptr %12) #15
  call void @llvm.lifetime.end.p0(i64 8, ptr %11) #15
  call void @llvm.lifetime.end.p0(i64 8, ptr %10) #15
  call void @llvm.lifetime.end.p0(i64 8, ptr %9) #15
  call void @llvm.lifetime.end.p0(i64 8, ptr %8) #15
  call void @llvm.lifetime.end.p0(i64 8, ptr %7) #15
  br label %61

61:                                               ; preds = %29
  br label %62

62:                                               ; preds = %61
  %63 = load i8, ptr %5, align 1, !tbaa !17
  %64 = zext i8 %63 to i32
  %65 = load ptr, ptr %3, align 8, !tbaa !13
  %66 = load i32, ptr %6, align 4, !tbaa !9
  %67 = sext i32 %66 to i64
  %68 = getelementptr inbounds i8, ptr %65, i64 %67
  %69 = load i8, ptr %68, align 1, !tbaa !17
  %70 = zext i8 %69 to i32
  %71 = icmp sgt i32 %64, %70
  br i1 %71, label %72, label %78

72:                                               ; preds = %62
  %73 = load i8, ptr %5, align 1, !tbaa !17
  %74 = load ptr, ptr %3, align 8, !tbaa !13
  %75 = load i32, ptr %6, align 4, !tbaa !9
  %76 = sext i32 %75 to i64
  %77 = getelementptr inbounds i8, ptr %74, i64 %76
  store i8 %73, ptr %77, align 1, !tbaa !17
  br label %78

78:                                               ; preds = %72, %62
  br label %79

79:                                               ; preds = %78
  %80 = load i32, ptr %6, align 4, !tbaa !9
  %81 = add nsw i32 %80, 1
  store i32 %81, ptr %6, align 4, !tbaa !9
  br label %24, !llvm.loop !79

82:                                               ; preds = %27
  call void @llvm.lifetime.end.p0(i64 1, ptr %5) #15
  br label %83

83:                                               ; preds = %82, %20
  ret void
}

; Function Attrs: nounwind uwtable
define dso_local i32 @hllMerge(ptr noundef %0, ptr noundef %1) #0 {
  %3 = alloca i32, align 4
  %4 = alloca ptr, align 8
  %5 = alloca ptr, align 8
  %6 = alloca ptr, align 8
  %7 = alloca i32, align 4
  %8 = alloca ptr, align 8
  %9 = alloca ptr, align 8
  %10 = alloca i64, align 8
  %11 = alloca i64, align 8
  %12 = alloca i32, align 4
  store ptr %0, ptr %4, align 8, !tbaa !13
  store ptr %1, ptr %5, align 8, !tbaa !23
  call void @llvm.lifetime.start.p0(i64 8, ptr %6) #15
  %13 = load ptr, ptr %5, align 8, !tbaa !23
  %14 = getelementptr inbounds nuw %struct.redisObject, ptr %13, i32 0, i32 2
  %15 = load ptr, ptr %14, align 8, !tbaa !25
  store ptr %15, ptr %6, align 8, !tbaa !27
  call void @llvm.lifetime.start.p0(i64 4, ptr %7) #15
  %16 = load ptr, ptr %6, align 8, !tbaa !27
  %17 = getelementptr inbounds nuw %struct.hllhdr, ptr %16, i32 0, i32 1
  %18 = load i8, ptr %17, align 1, !tbaa !17
  %19 = zext i8 %18 to i32
  %20 = icmp eq i32 %19, 0
  br i1 %20, label %21, label %26

21:                                               ; preds = %2
  %22 = load ptr, ptr %4, align 8, !tbaa !13
  %23 = load ptr, ptr %6, align 8, !tbaa !27
  %24 = getelementptr inbounds nuw %struct.hllhdr, ptr %23, i32 0, i32 4
  %25 = getelementptr inbounds [0 x i8], ptr %24, i64 0, i64 0
  call void @hllMergeDense(ptr noundef %22, ptr noundef %25)
  br label %145

26:                                               ; preds = %2
  call void @llvm.lifetime.start.p0(i64 8, ptr %8) #15
  %27 = load ptr, ptr %5, align 8, !tbaa !23
  %28 = getelementptr inbounds nuw %struct.redisObject, ptr %27, i32 0, i32 2
  %29 = load ptr, ptr %28, align 8, !tbaa !25
  store ptr %29, ptr %8, align 8, !tbaa !13
  call void @llvm.lifetime.start.p0(i64 8, ptr %9) #15
  %30 = load ptr, ptr %8, align 8, !tbaa !13
  %31 = load ptr, ptr %5, align 8, !tbaa !23
  %32 = getelementptr inbounds nuw %struct.redisObject, ptr %31, i32 0, i32 2
  %33 = load ptr, ptr %32, align 8, !tbaa !25
  %34 = call i64 @sdslen(ptr noundef %33)
  %35 = getelementptr inbounds nuw i8, ptr %30, i64 %34
  store ptr %35, ptr %9, align 8, !tbaa !13
  call void @llvm.lifetime.start.p0(i64 8, ptr %10) #15
  call void @llvm.lifetime.start.p0(i64 8, ptr %11) #15
  %36 = load ptr, ptr %8, align 8, !tbaa !13
  %37 = getelementptr inbounds nuw i8, ptr %36, i64 16
  store ptr %37, ptr %8, align 8, !tbaa !13
  store i32 0, ptr %7, align 4, !tbaa !9
  br label %38

38:                                               ; preds = %136, %26
  %39 = load ptr, ptr %8, align 8, !tbaa !13
  %40 = load ptr, ptr %9, align 8, !tbaa !13
  %41 = icmp ult ptr %39, %40
  br i1 %41, label %42, label %137

42:                                               ; preds = %38
  %43 = load ptr, ptr %8, align 8, !tbaa !13
  %44 = load i8, ptr %43, align 1, !tbaa !17
  %45 = zext i8 %44 to i32
  %46 = and i32 %45, 192
  %47 = icmp eq i32 %46, 0
  br i1 %47, label %48, label %62

48:                                               ; preds = %42
  %49 = load ptr, ptr %8, align 8, !tbaa !13
  %50 = load i8, ptr %49, align 1, !tbaa !17
  %51 = zext i8 %50 to i32
  %52 = and i32 %51, 63
  %53 = add nsw i32 %52, 1
  %54 = sext i32 %53 to i64
  store i64 %54, ptr %10, align 8, !tbaa !11
  %55 = load i64, ptr %10, align 8, !tbaa !11
  %56 = load i32, ptr %7, align 4, !tbaa !9
  %57 = sext i32 %56 to i64
  %58 = add nsw i64 %57, %55
  %59 = trunc i64 %58 to i32
  store i32 %59, ptr %7, align 4, !tbaa !9
  %60 = load ptr, ptr %8, align 8, !tbaa !13
  %61 = getelementptr inbounds nuw i8, ptr %60, i32 1
  store ptr %61, ptr %8, align 8, !tbaa !13
  br label %136

62:                                               ; preds = %42
  %63 = load ptr, ptr %8, align 8, !tbaa !13
  %64 = load i8, ptr %63, align 1, !tbaa !17
  %65 = zext i8 %64 to i32
  %66 = and i32 %65, 192
  %67 = icmp eq i32 %66, 64
  br i1 %67, label %68, label %88

68:                                               ; preds = %62
  %69 = load ptr, ptr %8, align 8, !tbaa !13
  %70 = load i8, ptr %69, align 1, !tbaa !17
  %71 = zext i8 %70 to i32
  %72 = and i32 %71, 63
  %73 = shl i32 %72, 8
  %74 = load ptr, ptr %8, align 8, !tbaa !13
  %75 = getelementptr inbounds i8, ptr %74, i64 1
  %76 = load i8, ptr %75, align 1, !tbaa !17
  %77 = zext i8 %76 to i32
  %78 = or i32 %73, %77
  %79 = add nsw i32 %78, 1
  %80 = sext i32 %79 to i64
  store i64 %80, ptr %10, align 8, !tbaa !11
  %81 = load i64, ptr %10, align 8, !tbaa !11
  %82 = load i32, ptr %7, align 4, !tbaa !9
  %83 = sext i32 %82 to i64
  %84 = add nsw i64 %83, %81
  %85 = trunc i64 %84 to i32
  store i32 %85, ptr %7, align 4, !tbaa !9
  %86 = load ptr, ptr %8, align 8, !tbaa !13
  %87 = getelementptr inbounds i8, ptr %86, i64 2
  store ptr %87, ptr %8, align 8, !tbaa !13
  br label %135

88:                                               ; preds = %62
  %89 = load ptr, ptr %8, align 8, !tbaa !13
  %90 = load i8, ptr %89, align 1, !tbaa !17
  %91 = zext i8 %90 to i32
  %92 = and i32 %91, 3
  %93 = add nsw i32 %92, 1
  %94 = sext i32 %93 to i64
  store i64 %94, ptr %10, align 8, !tbaa !11
  %95 = load ptr, ptr %8, align 8, !tbaa !13
  %96 = load i8, ptr %95, align 1, !tbaa !17
  %97 = zext i8 %96 to i32
  %98 = ashr i32 %97, 2
  %99 = and i32 %98, 31
  %100 = add nsw i32 %99, 1
  %101 = sext i32 %100 to i64
  store i64 %101, ptr %11, align 8, !tbaa !11
  %102 = load i64, ptr %10, align 8, !tbaa !11
  %103 = load i32, ptr %7, align 4, !tbaa !9
  %104 = sext i32 %103 to i64
  %105 = add nsw i64 %102, %104
  %106 = icmp sgt i64 %105, 16384
  br i1 %106, label %107, label %108

107:                                              ; preds = %88
  br label %137

108:                                              ; preds = %88
  br label %109

109:                                              ; preds = %129, %108
  %110 = load i64, ptr %10, align 8, !tbaa !11
  %111 = add nsw i64 %110, -1
  store i64 %111, ptr %10, align 8, !tbaa !11
  %112 = icmp ne i64 %110, 0
  br i1 %112, label %113, label %132

113:                                              ; preds = %109
  %114 = load i64, ptr %11, align 8, !tbaa !11
  %115 = load ptr, ptr %4, align 8, !tbaa !13
  %116 = load i32, ptr %7, align 4, !tbaa !9
  %117 = sext i32 %116 to i64
  %118 = getelementptr inbounds i8, ptr %115, i64 %117
  %119 = load i8, ptr %118, align 1, !tbaa !17
  %120 = zext i8 %119 to i64
  %121 = icmp sgt i64 %114, %120
  br i1 %121, label %122, label %129

122:                                              ; preds = %113
  %123 = load i64, ptr %11, align 8, !tbaa !11
  %124 = trunc i64 %123 to i8
  %125 = load ptr, ptr %4, align 8, !tbaa !13
  %126 = load i32, ptr %7, align 4, !tbaa !9
  %127 = sext i32 %126 to i64
  %128 = getelementptr inbounds i8, ptr %125, i64 %127
  store i8 %124, ptr %128, align 1, !tbaa !17
  br label %129

129:                                              ; preds = %122, %113
  %130 = load i32, ptr %7, align 4, !tbaa !9
  %131 = add nsw i32 %130, 1
  store i32 %131, ptr %7, align 4, !tbaa !9
  br label %109, !llvm.loop !80

132:                                              ; preds = %109
  %133 = load ptr, ptr %8, align 8, !tbaa !13
  %134 = getelementptr inbounds nuw i8, ptr %133, i32 1
  store ptr %134, ptr %8, align 8, !tbaa !13
  br label %135

135:                                              ; preds = %132, %68
  br label %136

136:                                              ; preds = %135, %48
  br label %38, !llvm.loop !81

137:                                              ; preds = %107, %38
  %138 = load i32, ptr %7, align 4, !tbaa !9
  %139 = icmp ne i32 %138, 16384
  br i1 %139, label %140, label %141

140:                                              ; preds = %137
  store i32 -1, ptr %3, align 4
  store i32 1, ptr %12, align 4
  br label %142

141:                                              ; preds = %137
  store i32 0, ptr %12, align 4
  br label %142

142:                                              ; preds = %141, %140
  call void @llvm.lifetime.end.p0(i64 8, ptr %11) #15
  call void @llvm.lifetime.end.p0(i64 8, ptr %10) #15
  call void @llvm.lifetime.end.p0(i64 8, ptr %9) #15
  call void @llvm.lifetime.end.p0(i64 8, ptr %8) #15
  %143 = load i32, ptr %12, align 4
  switch i32 %143, label %146 [
    i32 0, label %144
  ]

144:                                              ; preds = %142
  br label %145

145:                                              ; preds = %144, %21
  store i32 0, ptr %3, align 4
  store i32 1, ptr %12, align 4
  br label %146

146:                                              ; preds = %145, %142
  call void @llvm.lifetime.end.p0(i64 4, ptr %7) #15
  call void @llvm.lifetime.end.p0(i64 8, ptr %6) #15
  %147 = load i32, ptr %3, align 4
  ret i32 %147
}