; Function Attrs: nofree norecurse nosync nounwind memory(readwrite, inaccessiblemem: none) uwtable
define dso_local range(i32 -1, 1) i32 @hllMerge(ptr noundef captures(none) %0, ptr noundef readonly captures(none) %1) local_unnamed_addr #17 {
  %3 = getelementptr inbounds nuw i8, ptr %1, i64 8
  %4 = load ptr, ptr %3, align 8, !tbaa !15
  %5 = getelementptr inbounds nuw i8, ptr %4, i64 4
  %6 = load i8, ptr %5, align 1, !tbaa !11
  %7 = icmp eq i8 %6, 0
  br i1 %7, label %8, label %31

8:                                                ; preds = %2
  %9 = getelementptr inbounds nuw i8, ptr %4, i64 16
  %.b.i = load i1, ptr @simd_enabled, align 4
  br i1 %.b.i, label %.preheader54, label %10

.preheader54:                                     ; preds = %10, %8
  br label %14

10:                                               ; preds = %8
  %11 = load i32, ptr getelementptr inbounds nuw (i8, ptr @__cpu_model, i64 12), align 4
  %12 = and i32 %11, 1024
  %.not.i = icmp eq i32 %12, 0
  br i1 %.not.i, label %.preheader54, label %13

13:                                               ; preds = %10
  tail call void @hllMergeDenseAVX2(ptr noundef %0, ptr noundef nonnull readonly %9)
  br label %hllMergeDense.exit

14:                                               ; preds = %.preheader54, %30
  %indvars.iv.i = phi i64 [ %indvars.iv.next.i, %30 ], [ 0, %.preheader54 ]
  %15 = trunc i64 %indvars.iv.i to i32
  %16 = mul i32 %15, 6
  %17 = lshr i32 %16, 3
  %18 = zext nneg i32 %17 to i64
  %19 = getelementptr inbounds nuw i8, ptr %9, i64 %18
  %20 = load i8, ptr %19, align 1, !tbaa !11
  %21 = getelementptr inbounds nuw i8, ptr %19, i64 1
  %22 = load i8, ptr %21, align 1, !tbaa !11
  %23 = trunc i32 %16 to i8
  %24 = tail call i8 @llvm.fshr.i8(i8 %22, i8 %20, i8 %23)
  %25 = and i8 %24, 63
  %26 = getelementptr inbounds nuw i8, ptr %0, i64 %indvars.iv.i
  %27 = load i8, ptr %26, align 1, !tbaa !11
  %28 = icmp ugt i8 %25, %27
  br i1 %28, label %29, label %30

29:                                               ; preds = %14
  store i8 %25, ptr %26, align 1, !tbaa !11
  br label %30

30:                                               ; preds = %29, %14
  %indvars.iv.next.i = add nuw nsw i64 %indvars.iv.i, 1
  %exitcond.not.i = icmp eq i64 %indvars.iv.next.i, 16384
  br i1 %exitcond.not.i, label %hllMergeDense.exit, label %14, !llvm.loop !60

31:                                               ; preds = %2
  %32 = getelementptr inbounds i8, ptr %4, i64 -1
  %33 = load i8, ptr %32, align 1, !tbaa !11
  %34 = zext i8 %33 to i32
  %35 = and i32 %34, 7
  switch i32 %35, label %._crit_edge.thread [
    i32 0, label %36
    i32 1, label %39
    i32 2, label %43
    i32 3, label %47
    i32 4, label %51
  ]

36:                                               ; preds = %31
  %37 = lshr i32 %34, 3
  %38 = zext nneg i32 %37 to i64
  br label %sdslen.exit

39:                                               ; preds = %31
  %40 = getelementptr inbounds i8, ptr %4, i64 -3
  %41 = load i8, ptr %40, align 1, !tbaa !11
  %42 = zext i8 %41 to i64
  br label %sdslen.exit

43:                                               ; preds = %31
  %44 = getelementptr inbounds i8, ptr %4, i64 -5
  %45 = load i16, ptr %44, align 1, !tbaa !18
  %46 = zext i16 %45 to i64
  br label %sdslen.exit

47:                                               ; preds = %31
  %48 = getelementptr inbounds i8, ptr %4, i64 -9
  %49 = load i32, ptr %48, align 1, !tbaa !12
  %50 = zext i32 %49 to i64
  br label %sdslen.exit

51:                                               ; preds = %31
  %52 = getelementptr inbounds i8, ptr %4, i64 -17
  %53 = load i64, ptr %52, align 1, !tbaa !5
  br label %sdslen.exit

sdslen.exit:                                      ; preds = %36, %39, %43, %47, %51
  %.0.i = phi i64 [ %53, %51 ], [ %50, %47 ], [ %46, %43 ], [ %42, %39 ], [ %38, %36 ]
  %54 = getelementptr inbounds nuw i8, ptr %4, i64 %.0.i
  %55 = icmp samesign ugt i64 %.0.i, 16
  br i1 %55, label %.lr.ph.preheader, label %._crit_edge.thread

.lr.ph.preheader:                                 ; preds = %sdslen.exit
  %56 = getelementptr inbounds nuw i8, ptr %4, i64 16
  br label %.lr.ph

.lr.ph:                                           ; preds = %.lr.ph.preheader, %93
  %.03848 = phi i32 [ %.139, %93 ], [ 0, %.lr.ph.preheader ]
  %.04047 = phi ptr [ %94, %93 ], [ %56, %.lr.ph.preheader ]
  %57 = load i8, ptr %.04047, align 1, !tbaa !11
  %58 = zext i8 %57 to i32
  %trunc = and i8 %57, -64
  switch i8 %trunc, label %71 [
    i8 0, label %59
    i8 64, label %62
  ]

59:                                               ; preds = %.lr.ph
  %60 = add i32 %.03848, 1
  %61 = add i32 %60, %58
  br label %93

62:                                               ; preds = %.lr.ph
  %63 = shl nuw nsw i32 %58, 8
  %64 = and i32 %63, 16128
  %65 = getelementptr inbounds nuw i8, ptr %.04047, i64 1
  %66 = load i8, ptr %65, align 1, !tbaa !11
  %67 = zext i8 %66 to i32
  %68 = add i32 %.03848, 1
  %69 = add i32 %68, %64
  %70 = add i32 %69, %67
  br label %93

71:                                               ; preds = %.lr.ph
  %72 = and i32 %58, 3
  %73 = add nuw nsw i32 %72, 1
  %74 = zext nneg i32 %73 to i64
  %75 = lshr i32 %58, 2
  %76 = and i32 %75, 31
  %77 = sext i32 %.03848 to i64
  %78 = add nsw i64 %74, %77
  %79 = icmp sgt i64 %78, 16384
  br i1 %79, label %._crit_edge, label %.preheader

.preheader:                                       ; preds = %71
  %80 = zext nneg i32 %72 to i64
  %81 = trunc nuw nsw i32 %76 to i8
  %82 = add nuw nsw i8 %81, 1
  br label %83

83:                                               ; preds = %.preheader, %89
  %indvars.iv = phi i64 [ %77, %.preheader ], [ %indvars.iv.next, %89 ]
  %84 = phi i64 [ %80, %.preheader ], [ %90, %89 ]
  %85 = getelementptr inbounds i8, ptr %0, i64 %indvars.iv
  %86 = load i8, ptr %85, align 1, !tbaa !11
  %87 = zext i8 %86 to i32
  %.not44 = icmp samesign ult i32 %76, %87
  br i1 %.not44, label %89, label %88

88:                                               ; preds = %83
  store i8 %82, ptr %85, align 1, !tbaa !11
  br label %89

89:                                               ; preds = %88, %83
  %indvars.iv.next = add nsw i64 %indvars.iv, 1
  %90 = add nsw i64 %84, -1
  %.not = icmp eq i64 %84, 0
  br i1 %.not, label %91, label %83, !llvm.loop !61

91:                                               ; preds = %89
  %92 = trunc nsw i64 %indvars.iv.next to i32
  br label %93

93:                                               ; preds = %62, %91, %59
  %.sink = phi i64 [ 2, %62 ], [ 1, %91 ], [ 1, %59 ]
  %.139 = phi i32 [ %70, %62 ], [ %92, %91 ], [ %61, %59 ]
  %94 = getelementptr inbounds nuw i8, ptr %.04047, i64 %.sink
  %95 = icmp ult ptr %94, %54
  br i1 %95, label %.lr.ph, label %._crit_edge, !llvm.loop !62

._crit_edge:                                      ; preds = %93, %71
  %.038.lcssa.ph = phi i32 [ %.139, %93 ], [ %.03848, %71 ]
  %96 = icmp eq i32 %.038.lcssa.ph, 16384
  br i1 %96, label %hllMergeDense.exit, label %._crit_edge.thread

hllMergeDense.exit:                               ; preds = %30, %13, %._crit_edge
  br label %._crit_edge.thread

._crit_edge.thread:                               ; preds = %31, %sdslen.exit, %._crit_edge, %hllMergeDense.exit
  %.1 = phi i32 [ 0, %hllMergeDense.exit ], [ -1, %._crit_edge ], [ -1, %sdslen.exit ], [ -1, %31 ]
  ret i32 %.1
}